; Function Attrs: nounwind uwtable
define hidden zeroext i1 @SDL_ClaimWindowForGPUDevice_REAL(ptr noundef readonly captures(address_is_null) %0, ptr noundef %1) local_unnamed_addr #0 {
  %3 = icmp eq ptr %0, null
  br i1 %3, label %4, label %6

4:                                                ; preds = %2
  %5 = tail call zeroext i1 (ptr, ...) @SDL_SetError_REAL(ptr noundef nonnull @.str.3) #7
  br label %22

6:                                                ; preds = %2
  %7 = icmp eq ptr %1, null
  br i1 %7, label %8, label %10

8:                                                ; preds = %6
  %9 = tail call zeroext i1 (ptr, ...) @SDL_SetError_REAL(ptr noundef nonnull @.str.4, ptr noundef nonnull @.str.352) #7
  br label %22

10:                                               ; preds = %6
  %11 = getelementptr inbounds nuw i8, ptr %1, i64 72
  %12 = load i64, ptr %11, align 8
  %13 = and i64 %12, 1073741824
  %.not = icmp eq i64 %13, 0
  br i1 %.not, label %16, label %14

14:                                               ; preds = %10
  %15 = tail call zeroext i1 (ptr, ...) @SDL_SetError_REAL(ptr noundef nonnull @.str.357) #7
  br label %22

16:                                               ; preds = %10
  %17 = getelementptr inbounds nuw i8, ptr %0, i64 520
  %18 = load ptr, ptr %17, align 8
  %19 = getelementptr inbounds nuw i8, ptr %0, i64 664
  %20 = load ptr, ptr %19, align 8
  %21 = tail call zeroext i1 %18(ptr noundef %20, ptr noundef nonnull %1) #7
  br label %22

22:                                               ; preds = %16, %14, %8, %4
  %.0 = phi i1 [ false, %4 ], [ %9, %8 ], [ %15, %14 ], [ %21, %16 ]
  ret i1 %.0
}